; ModuleID = '57/1174.c'
source_filename = "57/1174.c"
target datalayout = "e-m:e-p270:32:32-p271:32:32-p272:64:64-i64:64-f80:128-n8:16:32:64-S128"
target triple = "x86_64-pc-linux-gnu"

@.str = private unnamed_addr constant [3 x i8] c"%d\00", align 1
@.str.1 = private unnamed_addr constant [3 x i8] c"%s\00", align 1
@.str.2 = private unnamed_addr constant [4 x i8] c"%s\0A\00", align 1

; Function Attrs: noinline nounwind uwtable
define dso_local i32 @main() #0 {
  %1 = alloca i32, align 4
  %2 = alloca i32, align 4
  %3 = alloca i32, align 4
  %4 = alloca i32, align 4
  %5 = alloca i32, align 4
  %6 = alloca [300 x i8], align 16
  %7 = alloca i32, align 4
  store i32 0, i32* %1, align 4
  %8 = call i32 (i8*, ...) @__isoc99_scanf(i8* getelementptr inbounds ([3 x i8], [3 x i8]* @.str, i64 0, i64 0), i32* %2)
  store i32 0, i32* %4, align 4
  br label %9

9:                                                ; preds = %101, %0
  %10 = load i32, i32* %4, align 4
  %11 = load i32, i32* %2, align 4
  %12 = icmp slt i32 %10, %11
  br i1 %12, label %13, label %104

13:                                               ; preds = %9
  %14 = getelementptr inbounds [300 x i8], [300 x i8]* %6, i64 0, i64 0
  %15 = call i32 (i8*, ...) @__isoc99_scanf(i8* getelementptr inbounds ([3 x i8], [3 x i8]* @.str.1, i64 0, i64 0), i8* %14)
  %16 = getelementptr inbounds [300 x i8], [300 x i8]* %6, i64 0, i64 0
  %17 = call i64 @strlen(i8* %16) #3
  %18 = trunc i64 %17 to i32
  store i32 %18, i32* %7, align 4
  %19 = load i32, i32* %7, align 4
  %20 = icmp sgt i32 %19, 3
  br i1 %20, label %21, label %97

21:                                               ; preds = %13
  %22 = load i32, i32* %7, align 4
  %23 = sub nsw i32 %22, 1
  %24 = sext i32 %23 to i64
  %25 = getelementptr inbounds [300 x i8], [300 x i8]* %6, i64 0, i64 %24
  %26 = load i8, i8* %25, align 1
  %27 = sext i8 %26 to i32
  %28 = icmp eq i32 %27, 114
  br i1 %28, label %29, label %42

29:                                               ; preds = %21
  %30 = load i32, i32* %7, align 4
  %31 = sub nsw i32 %30, 2
  %32 = sext i32 %31 to i64
  %33 = getelementptr inbounds [300 x i8], [300 x i8]* %6, i64 0, i64 %32
  %34 = load i8, i8* %33, align 1
  %35 = sext i8 %34 to i32
  %36 = icmp eq i32 %35, 101
  br i1 %36, label %37, label %42

37:                                               ; preds = %29
  %38 = load i32, i32* %7, align 4
  %39 = sub nsw i32 %38, 2
  %40 = sext i32 %39 to i64
  %41 = getelementptr inbounds [300 x i8], [300 x i8]* %6, i64 0, i64 %40
  store i8 0, i8* %41, align 1
  br label %94

42:                                               ; preds = %29, %21
  %43 = load i32, i32* %7, align 4
  %44 = sub nsw i32 %43, 1
  %45 = sext i32 %44 to i64
  %46 = getelementptr inbounds [300 x i8], [300 x i8]* %6, i64 0, i64 %45
  %47 = load i8, i8* %46, align 1
  %48 = sext i8 %47 to i32
  %49 = icmp eq i32 %48, 121
  br i1 %49, label %50, label %63

50:                                               ; preds = %42
  %51 = load i32, i32* %7, align 4
  %52 = sub nsw i32 %51, 2
  %53 = sext i32 %52 to i64
  %54 = getelementptr inbounds [300 x i8], [300 x i8]* %6, i64 0, i64 %53
  %55 = load i8, i8* %54, align 1
  %56 = sext i8 %55 to i32
  %57 = icmp eq i32 %56, 108
  br i1 %57, label %58, label %63

58:                                               ; preds = %50
  %59 = load i32, i32* %7, align 4
  %60 = sub nsw i32 %59, 2
  %61 = sext i32 %60 to i64
  %62 = getelementptr inbounds [300 x i8], [300 x i8]* %6, i64 0, i64 %61
  store i8 0, i8* %62, align 1
  br label %93

63:                                               ; preds = %50, %42
  %64 = load i32, i32* %7, align 4
  %65 = sub nsw i32 %64, 1
  %66 = sext i32 %65 to i64
  %67 = getelementptr inbounds [300 x i8], [300 x i8]* %6, i64 0, i64 %66
  %68 = load i8, i8* %67, align 1
  %69 = sext i8 %68 to i32
  %70 = icmp eq i32 %69, 103
  br i1 %70, label %71, label %92

71:                                               ; preds = %63
  %72 = load i32, i32* %7, align 4
  %73 = sub nsw i32 %72, 2
  %74 = sext i32 %73 to i64
  %75 = getelementptr inbounds [300 x i8], [300 x i8]* %6, i64 0, i64 %74
  %76 = load i8, i8* %75, align 1
  %77 = sext i8 %76 to i32
  %78 = icmp eq i32 %77, 110
  br i1 %78, label %79, label %92

79:                                               ; preds = %71
  %80 = load i32, i32* %7, align 4
  %81 = sub nsw i32 %80, 3
  %82 = sext i32 %81 to i64
  %83 = getelementptr inbounds [300 x i8], [300 x i8]* %6, i64 0, i64 %82
  %84 = load i8, i8* %83, align 1
  %85 = sext i8 %84 to i32
  %86 = icmp eq i32 %85, 105
  br i1 %86, label %87, label %92

87:                                               ; preds = %79
  %88 = load i32, i32* %7, align 4
  %89 = sub nsw i32 %88, 3
  %90 = sext i32 %89 to i64
  %91 = getelementptr inbounds [300 x i8], [300 x i8]* %6, i64 0, i64 %90
  store i8 0, i8* %91, align 1
  br label %92

92:                                               ; preds = %87, %79, %71, %63
  br label %93

93:                                               ; preds = %92, %58
  br label %94

94:                                               ; preds = %93, %37
  %95 = getelementptr inbounds [300 x i8], [300 x i8]* %6, i64 0, i64 0
  %96 = call i32 (i8*, ...) @printf(i8* getelementptr inbounds ([4 x i8], [4 x i8]* @.str.2, i64 0, i64 0), i8* %95)
  br label %100

97:                                               ; preds = %13
  %98 = getelementptr inbounds [300 x i8], [300 x i8]* %6, i64 0, i64 0
  %99 = call i32 (i8*, ...) @printf(i8* getelementptr inbounds ([4 x i8], [4 x i8]* @.str.2, i64 0, i64 0), i8* %98)
  br label %100

100:                                              ; preds = %97, %94
  br label %101

101:                                              ; preds = %100
  %102 = load i32, i32* %4, align 4
  %103 = add nsw i32 %102, 1
  store i32 %103, i32* %4, align 4
  br label %9

104:                                              ; preds = %9
  ret i32 0
}

declare dso_local i32 @__isoc99_scanf(i8*, ...) #1

; Function Attrs: nounwind readonly
declare dso_local i64 @strlen(i8*) #2

declare dso_local i32 @printf(i8*, ...) #1


!llvm.module.flags = !{!0}
!llvm.ident = !{!1}

!0 = !{i32 1, !"wchar_size", i32 4}
!1 = !{!"clang version 10.0.0-4ubuntu1 "}
